

 ibmbio

 Start     Length     Name                   Class
 0001:0000 01346H     BIODATA                BDATA
 0001:1346 00000H     INTERRMSG              BDATA
 0002:0000 04C74H     CODE                   CODE
 0002:4C80 00400H     BIOSEXTDRV             CODE
 0002:5080 00840H     BIOSINIT               CODE
 0003:0000 02EEFH     _TEXT                  CODE
 0003:2EF0 00002H     DBCODE                 CODE
 0004:0000 01776H     _DATA                  DATA
 0004:1776 00000H     CONST                  CONST
 0004:1780 00400H     STACK                  BSS
 0004:1B80 00194H     _BSS                   BSS
 0004:1D14 00000H     C_COMMON               BSS
 0004:1D20 003DEH     c_common               BSS
 0004:20FE 00002H     END_BSS                ENDBSS

 Origin   Group
 0002:0   BIOSSEG
 0004:0   DGROUP
 0003:0   IGROUP
 0001:0   BIOSGROUP

  Address         Publics by Value

 0000:0001  Abs  __acrtused
 0000:0028  Abs  INITSTRINGLEN
 0001:0000       TIMDEV
 0001:001A       DevHlp
 0001:0022       InfSeg
 0001:0026       MonTab
 0001:0032       UpCntr
 0001:0033       RtcTbl
 0001:0054       BugBits
 0001:0108       FloppyDevice
 0001:0112       NUMDRV
 0001:0122       Drive
 0001:014E       DriveQueue
 0001:0152       fBigFAT
 0001:0153       Single
 0001:0154       LastDrv
 0001:0155       LastPhys
 0001:0206       DriveC
 0001:025E       DriveD
 0001:0416       BDSTable
 0001:0427       Start_BDS
 0001:0455       DPTable
 0001:045D       RATETBL
 0001:046A       SemInt13
 0001:046C       ScratchBufSem
 0001:046E       DriveActive
 0001:0470       FixedActive
 0001:0472       NumFix
 0001:0477       Floppy_Reset
 0001:0478       NumFlop
 0001:0486       Fixed
 0001:04B2       FixedQueue
 0001:04C7       UseROMflag
 0001:051C       DosBootLocn
 0001:051E       FinalDosLocn
 0001:0520       DRVFAT
 0001:0530       FatLoc
 0001:0550       OLDAX
 0001:0552       RealInt13Vector
 0001:0557       fHaveDRV2
 0001:0558       HotKeyMake
 0001:0559       HotKeyBreak
 0001:055A       HotKeyShift
 0001:055C       CurSG
 0001:055E       KeyboardID
 0001:0560       SwitchPID
 0001:0562       BIOSDataSeg
 0001:0564       DeviceHelp
 0001:0568       Int16ROM
 0001:056C       SADump
 0001:0570       Reboot
 0001:0574       MSATSVector
 0001:0578       LInfoSeg
 0001:057C       SInfoSeg
 0001:057E       KbdLEDs
 0001:057F       CmdFlags
 0001:0580       OtherFlags
 0001:0581       MiscFlags
 0001:0582       TypaRates
 0001:059E       KeyPacket
 0001:05AC       KeyPacket2
 0001:05BA       XlateFlags
 0001:05BB       ToggleFlags
 0001:05BC       AltKeyPad
 0001:05BD       XTableSize
 0001:05BF       XTablePAddr
 0001:05C3       AltPadMap
 0001:05D0       CtlPadMap
 0001:05DD       AltTable
 0001:05F7       KeyHistory
 0001:0601       FreeListHead
 0001:0605       ElementList
 0001:0BA5       PSGPointers
 0001:0BC5       PSG0
 0001:0C11       PSG2
 0001:0E25       EndOfData
 0001:0E26       KBDDEV
 0001:0E86       PRNDEV
 0001:0EA0       LPT1DEV
 0001:0EBA       LPT2DEV
 0001:0ED4       LPT3DEV
 0001:0EF2       NUMOFPRTS
 0001:0EF3       IRQ5INDEX
 0001:0EF5       MAXWAITTIME
 0001:0EF7       FLAGS
 0001:0EF8       REQUESTDEVICE
 0001:0EF9       DEVICE_HELP
 0001:0EFD       PREVINT17
 0001:0F01       PREVINT2A
 0001:0F05       IRQ7OWNER
 0001:0F07       TIMERNEEDED
 0001:0F08       DEINSTALLFLG
 0001:0F09       DOSVAR
 0001:0F0D       INITSTRING
 0001:0FA1       PERPRTAREA
 0001:1326       EGA_Present
 0001:1327       SCRDEV
 0001:1341       DevHelp
 0002:0000       BiosData
 0002:0002       BioDisp
 0002:0029       StatusDevReady
 0002:002D       CmdErr
 0002:002F       StatusPartialXfer
 0002:0032       StatusError
 0002:0036       StatusNoXfer
 0002:003B       StatusComplete
 0002:003D       SetStatus
 0002:004E       JustReturn
 0002:004F       RTENTR
 0002:0076       BADCMD
 0002:007F       STREDY
 0002:0085       STCOMP
 0002:008B       RTREAD
 0002:00C8       RTWRIT
 0002:023A       RTINIT
 0002:02A9       RTCINT
 0002:0329       FIXISEG
 0002:042B       FixDayOfWeek
 0002:044F       GTDAYS
 0002:04A1       INTRET
 0002:04A2       _BiosReInit
 0002:04A3       BiosContextDS
 0002:04A9       BiosContextES
 0002:04AF       IntErrNull
 0002:04AF       IntErr
 0002:04B2       SWait
 0002:04D3       SWClr
 0002:04D6       SSig
 0002:04F2       SBlock
 0002:04F6       PBlock
 0002:050A       PRun
 0002:0514       PopFlags
 0002:0516       RCONDEV
 0002:0549       $ConRead
 0002:05B7       $ConWrit
 0002:05DB       BreakHandler
 0002:0600       DriveGenIOCTL
 0002:06D3       GetDeviceParameters
 0002:0731       SetDeviceParameters
 0002:07D8       FormatTrack
 0002:0898       VerifyTrack
 0002:08BB       ReadTrack
 0002:08C0       WriteTrack
 0002:09DD       SectorIndexToSectorSize
 0002:0A5A       IOCTL$GetMap
 0002:0A8B       IOCTL$SetMap
 0002:0A97       Update_Owner
 0002:0B91       BuildNewBPB
 0002:0BD6       TrackRWV
 0002:0CC9       FmtVerifyTrack
 0002:0E07       Do_DiskIO
 0002:0EB0       DriveRequest
 0002:0EDD       DriveInit
 0002:102E       DriveRead
 0002:10A4       Disk_IO
 0002:1174       DriveExecute
 0002:148A       MapSector
 0002:1561       Setup
 0002:161D       DriveInterrupt
 0002:1653       SetTimer1
 0002:166D       SetTimer2
 0002:167C       DriveTimer
 0002:174D       BPBFromBoot
 0002:17A6       BPBFromScratch
 0002:188D       BPB_To_Rec
 0002:18A6       SetMinBPB
 0002:18C1       ReadSecInScratch
 0002:195E       Get_BDS_Addr
 0002:1972       Is_BPB_Boot
 0002:19A6       Set_Changed
 0002:19C9       Flag_UM
 0002:1A01       Reset_UM
 0002:1A16       DMAsetup
 0002:1A54       GetDrivePtr
 0002:1A61       GetFloppyParam
 0002:1A83       Rcl765
 0002:1AAB       Rst765
 0002:1B00       Spec765
 0002:1B16       Sense765
 0002:1B2E       Sel765
 0002:1BA9       Seek765
 0002:1BF1       RdWr765
 0002:1C9A       Fini765
 0002:1CC4       Put765
 0002:1CD5       Get765
 0002:1CF4       FixedExecute
 0002:1E47       FxExDVerify
 0002:1EDC       FixedInterrupt
 0002:1F34       FDGetStat
 0002:1F3B       FDWrite
 0002:1F5C       FDParam
 0002:1FA5       FDCommand
 0002:1FC8       WaitRdy
 0002:1FDF       SendCmdPkt
 0002:1FF7       FxEnabInts
 0002:201B       CheckDMAWrap
 0002:2030       w_CheckDMAWrap
 0002:205D       FloppyChange
 0002:208C       DoneRequest
 0002:210A       PhysToVirtESDI
 0002:2121       PhysToVirtDSSI
 0002:213B       VirtToPhysESBX
 0002:2151       VirtToPhysDSBX
 0002:215E       Get_Request_Packet
 0002:2169       Release_Request_Packet
 0002:2177       Process_Partition
 0002:21EF       Process_Boot
 0002:22A8       RealModeDS
 0002:22AA       Int13Handler
 0002:2392       INT13
 0002:2585       SetROMDskStat
 0002:25C7       Get_Phys_BDS
 0002:274A       ThrowMeAway
 0002:288C       KBDINT
 0002:2B60       MonDispEntry
 0002:2C98       KBDIOCTL
 0002:30EE       KBDSTRAT
 0002:3158       KbdCmdErr
 0002:315E       KbdStatusDone
 0002:315F       KbdGenErr
 0002:3255       Int16Intercept
 0002:33A8       Int16DS
 0002:33AE       BlockCheck
 0002:33DF       UnBlockCheck
 0002:33F3       FirstReadCheck
 0002:342E       IOCtlAddrCheck
 0002:3475       HotKeyCheck
 0002:34F8       YieldCheck
 0002:3511       Interrupted
 0002:3521       MSATS
 0002:354B       AccessXTable
 0002:3565       PutInKIB
 0002:35E6       DiscardElement
 0002:3659       PurgeKIB
 0002:36A6       UpdateKbdLEDs
 0002:370E       SetTypamatic
 0002:3752       KbdBeep
 0002:378D       GetScanCode
 0002:3798       DisableKbd
 0002:37A4       EnableKbd
 0002:37B0       SendToKbd
 0002:3803       KbdStatusWait
 0002:3830       KbdXlate
 0002:3EE4       CODESEGDS
 0002:3EEE       PRTINT07
 0002:3EFA       PRTINT05
 0002:3F06       INTERRUPT
 0002:3F43       PRTINT17
 0002:3FCA       PRT17PRINT
 0002:3FFA       PRT17STATUS
 0002:400C       PRTINT2A
 0002:406A       PRT17INIT
 0002:40AF       INT17BUSY
 0002:4131       REALMONWRITE
 0002:4149       PRTTIMGR
 0002:41B3       COPY1K
 0002:4208       SENDCHAR
 0002:4283       SENDTODEV
 0002:42D4       CANCELBLK
 0002:4377       DEVDONE
 0002:438B       GETSTATUS
 0002:439A       PRTMONREG
 0002:444B       MONNOTIFY
 0002:4525       PRTLPT2
 0002:452E       PRTLPT3
 0002:4537       PRTREQST
 0002:459D       PRTSTATUS
 0002:45B1       PRTOPEN
 0002:45C4       PRTCOMPLETE
 0002:45CB       PRTIOCTL
 0002:4617       PRTDEINSTALL
 0002:4648       PRTERROR
 0002:464F       PRTBLOCK
 0002:4676       BLOCK
 0002:46BE       PRTSTOUT
 0002:46D3       PRTMONOPEN
 0002:46FD       PRTSTCLO
 0002:475F       PRTSTIOC
 0002:477B       PRTCHECKFC
 0002:47B3       PRTIOCTL_FC
 0002:4873       PRTIOCTL_IR
 0002:48C3       PRTIOCTL_IN
 0002:4910       PRTIOCTL_ST
 0002:4925       OUTSPOOL
 0002:49AF       GETPID
 0002:49C4       MONWRITE
 0002:49D5       PRINTBLOCK
 0002:4A66       STARTTIMER
 0002:4AA1       INITIALPRT
 0002:4AB6       PRTINIT
 0002:5080       Disk_Init
 0002:522D       SETHRD
 0002:52AE       HdDriveNo
 0002:52D6       FlDriveNo
 0002:5390       _BiosInit
 0002:5463       SizeLowMem
 0002:54B1       _BiosReadDos
 0002:5870       Drv2Pres
 0003:0000       _strncmpif
 0003:003B       _strncpyf
 0003:0073       _strcspnf
 0003:00B7       _strspnf
 0003:00FB       _rmpath
 0003:012C       _abort
 0003:0153       _delenv
 0003:01F3       _addenv
 0003:02CA       _initenv
 0003:0314       _isharddrv
 0003:0378       LDOSGETMESSAGE
 0003:043F       _ldmsgrtrv
 0003:0490       _putmes
 0003:064C       _cfg_badcmd
 0003:0665       _cfg_badparm
 0003:067E       _cfg_noparm
 0003:0697       _cfg_unkncmd
 0003:06E5       _cfg_missparm
 0003:06FE       _cfg_badushort
 0003:0741       _cfg_bad_enum_value
 0003:077F       _cfg_badpgm
 0003:07B6       _cfg_badctrycode
 0003:07F3       _cfg_lookup
 0003:0831       _cfg_tlookup
 0003:085B       _cmdfmt0
 0003:0899       _cmdfmt1
 0003:08B4       _cfg_parse
 0003:09BC       _cfg_parseushort
 0003:0A25       _cfg_parseushortrg
 0003:0AA5       _cfg_parselist
 0003:0AFD       _cfg_execpgm
 0003:0C38       _cfg_parsebool
 0003:0CAF       _cfg_yesno
 0003:0D1D       _cfg_onoff
 0003:0D8B       _cfg_swap
 0003:0E22       _cfg
 0003:117C       _ini_dynlinks
 0003:11EC       _sysimain
 0003:1277       _close
 0003:128F       _lseek
 0003:12BA       _mallocf
 0003:12DC       _open
 0003:1316       _readf
 0003:133D       _read
 0003:1351       _fputchar
 0003:137B       _cfg_fbreak
 0003:138D       _cfg_fbuffers
 0003:13EF       _cfg_fcountry
 0003:1446       _cfg_fcbsub
 0003:14C6       _cfg_ffcbs
 0003:151A       _cfg_fiopl
 0003:152C       _cfg_flibpath
 0003:1557       _cfg_fmaxwait
 0003:15AA       _cfg_fmemmansub
 0003:1631       _cfg_fmemman
 0003:1677       _cfg_fpriority
 0003:16F9       _cfg_fprotectonly
 0003:170B       _cfg_fprotshell
 0003:1733       _cfg_frealonly
 0003:1745       _cfg_frmsize
 0003:1798       _cfg_rundaem
 0003:17D1       _cfg_fdaemon
 0003:17E2       _cfg_frun
 0003:17F3       _cfg_fshell
 0003:181B       _cfg_fswappath
 0003:1843       _cfg_fswitchar
 0003:1868       _cfg_fthreads
 0003:18BE       _cfg_tssub
 0003:1979       _cfg_ftimeslice
 0003:19D8       _cfg_trset
 0003:1A54       _cfg_ftrace
 0003:1B28       _cfg_ftracebuf
 0003:1BA1       _dev_deinstall
 0003:1BCC       _dev_dpbdone
 0003:1C14       _cfg_fdevice
 0003:1C8D       _cfg_devnew
 0003:1F4B       _cfg_devold
 0003:2105       SystemInit
 0003:2156       _fcopy
 0003:217F       _bcopy
 0003:21A9       _clearseg
 0003:21C2       _fatal
 0003:21D7       _setds
 0003:21DE       _resetsegs
 0003:21EF       _memcpyf
 0003:221A       _memsetf
 0003:222D       _dev_calldev
 0003:2264       _sysinit
 0003:2768       _editddhdr
 0003:27B6       _getexeinfo
 0003:2A2A       _init
 0003:2AE9       _applyrel
 0003:2C88       _checkoffset
 0003:2CA7       _copyseg
 0003:2D55       _clearbss
 0003:2DA4       _copyback
 0003:2E32       _dprintf
 0003:2E38       _itoa
 0003:2E53       __lshl
 0003:2E5E       __lshr
 0003:2E69       _ltoa
 0003:2E71       _strlen
 0003:2E8A       _ultoa
 0003:2E92       __cltoasub
 0003:2EA0       __cxtoa
 0004:0000       XlateTable
 0004:0002       XTableFlags1
 0004:000A       XTableLen
 0004:0028       KeyDefs
 0004:0322       CtlAltKeys
 0004:0332       AccentTable
 0004:06D6       _cfg_bufcnt
 0004:06D8       _cfg_country
 0004:06DA       _cfg_hasdevs
 0004:06DB       _cfg_hasdev3x
 0004:06DC       _cfg_hasruns
 0004:06DE       _cfg_libpath
 0004:06E2       _cfg_protshell
 0004:06E4       _cfg_shell
 0004:06E6       _cfg_swappath
 0004:06EE       _tracebits
 0004:070E       _pDOSPUTMESSAGE
 0004:086E       _cfg_keytab
 0004:08F8       _cmdfmt
 0004:08FC       _pPANICWRITE
 0004:0900       _dlitab
 0004:10F0       _mestxt
 0004:1408       _DosInit
 0004:140C       _EntryPoint
 0004:1410       _MemLimit
 0004:1412       _RAS_BIOS_data
 0004:1592       _cfg_dosvar
 0004:15A3       _cfg_rmvar
 0004:16B6       _cfg_swapper
 0004:16C2       _cfg_swaptail
 0004:1736       _pDOSSETCTRYCODE
 0004:1D20       _pDOSCLOSE
 0004:1D24       _DDPacket
 0004:1D44       _ArenaInfo
 0004:1DF8       _pDOSEXECPGM
 0004:1DFC       _pass
 0004:1DFE       _pSICG
 0004:1E02       _newexe
 0004:1E42       _segtbl
 0004:1EEA       _DevHlp
 0004:1EEE       _pDOSREAD
 0004:1EF2       _pDOSDEVIOCTL
 0004:1EF6       _tracebuf
 0004:1EF8       _MsInitVars
 0004:1F0A       _pDOSGETMESSAGE
 0004:1F0E       _pDOSERROR
 0004:1F12       _pDOSDUPHANDLE
 0004:1F16       _seginfo
 0004:2090       _cfg_lineno
 0004:2092       _pDOSWRITE
 0004:2096       _pDOSQCURDISK
 0004:209A       _pDOSREALLOCSEG
 0004:209E       _exehdr
 0004:20DE       _cfg_buffer
 0004:20E2       _pDOSOPEN
 0004:20E6       _pDOSALLOCSEG
 0004:20EA       _pDOSEXIT
 0004:20EE       _pDOSGETPROCADDR
 0004:20F2       _pDOSLOADMODULE
 0004:20F6       _pDOSCHGFILEPTR
 0004:20FA       _pDOSFREEMODULE

Program entry point at 0003:2105
